target datalayout = "e-m:e-p270:32:32-p271:32:32-p272:64:64-i64:64-i128:128-f80:128-n8:16:32:64-S128"
target triple = "x86_64-pc-linux-gnu"

%"class.cv::Mat" = type { i32, i32, i32, i32, ptr, ptr, ptr, ptr, ptr, ptr, %"struct.cv::MatSize", %"struct.cv::MatStep" }
%"struct.cv::MatSize" = type { ptr }
%"struct.cv::MatStep" = type { ptr, [2 x i64] }

; Function Attrs: inlinehint mustprogress nounwind uwtable
define linkonce_odr noundef nonnull align 4 dereferenceable(4) ptr @_ZSt3minIiERKT_S2_S2_(ptr noundef nonnull align 4 dereferenceable(4) %0, ptr noundef nonnull align 4 dereferenceable(4) %1) #5 comdat {
  %3 = alloca ptr, align 8
  %4 = alloca ptr, align 8
  %5 = alloca ptr, align 8
  store ptr %0, ptr %4, align 8, !tbaa !100
  store ptr %1, ptr %5, align 8, !tbaa !100
  %6 = load ptr, ptr %5, align 8, !tbaa !100
  %7 = load i32, ptr %6, align 4, !tbaa !40
  %8 = load ptr, ptr %4, align 8, !tbaa !100
  %9 = load i32, ptr %8, align 4, !tbaa !40
  %10 = icmp slt i32 %7, %9
  br i1 %10, label %11, label %13

11:                                               ; preds = %2
  %12 = load ptr, ptr %5, align 8, !tbaa !100
  store ptr %12, ptr %3, align 8
  br label %15

13:                                               ; preds = %2
  %14 = load ptr, ptr %4, align 8, !tbaa !100
  store ptr %14, ptr %3, align 8
  br label %15

15:                                               ; preds = %13, %11
  %16 = load ptr, ptr %3, align 8
  ret ptr %16
}

; Function Attrs: inlinehint mustprogress nounwind uwtable
define linkonce_odr hidden noundef ptr @_ZN2cv3Mat3ptrIhEEPT_i(ptr noundef nonnull align 8 dereferenceable(96) %0, i32 noundef %1) #5 comdat align 2 {
  %3 = alloca ptr, align 8
  %4 = alloca i32, align 4
  store ptr %0, ptr %3, align 8, !tbaa !72
  store i32 %1, ptr %4, align 4, !tbaa !40
  %5 = load ptr, ptr %3, align 8
  %6 = getelementptr inbounds nuw %"class.cv::Mat", ptr %5, i32 0, i32 4
  %7 = load ptr, ptr %6, align 8, !tbaa !138
  %8 = getelementptr inbounds nuw %"class.cv::Mat", ptr %5, i32 0, i32 11
  %9 = getelementptr inbounds nuw %"struct.cv::MatStep", ptr %8, i32 0, i32 0
  %10 = load ptr, ptr %9, align 8, !tbaa !139
  %11 = getelementptr inbounds i64, ptr %10, i64 0
  %12 = load i64, ptr %11, align 8, !tbaa !66
  %13 = load i32, ptr %4, align 4, !tbaa !40
  %14 = sext i32 %13 to i64
  %15 = mul i64 %12, %14
  %16 = getelementptr inbounds nuw i8, ptr %7, i64 %15
  ret ptr %16
}

; Function Attrs: inlinehint mustprogress nounwind uwtable
define linkonce_odr hidden noundef ptr @_ZN2cv3Mat3ptrIiEEPT_i(ptr noundef nonnull align 8 dereferenceable(96) %0, i32 noundef %1) #5 comdat align 2 {
  %3 = alloca ptr, align 8
  %4 = alloca i32, align 4
  store ptr %0, ptr %3, align 8, !tbaa !72
  store i32 %1, ptr %4, align 4, !tbaa !40
  %5 = load ptr, ptr %3, align 8
  %6 = getelementptr inbounds nuw %"class.cv::Mat", ptr %5, i32 0, i32 4
  %7 = load ptr, ptr %6, align 8, !tbaa !138
  %8 = getelementptr inbounds nuw %"class.cv::Mat", ptr %5, i32 0, i32 11
  %9 = getelementptr inbounds nuw %"struct.cv::MatStep", ptr %8, i32 0, i32 0
  %10 = load ptr, ptr %9, align 8, !tbaa !139
  %11 = getelementptr inbounds i64, ptr %10, i64 0
  %12 = load i64, ptr %11, align 8, !tbaa !66
  %13 = load i32, ptr %4, align 4, !tbaa !40
  %14 = sext i32 %13 to i64
  %15 = mul i64 %12, %14
  %16 = getelementptr inbounds nuw i8, ptr %7, i64 %15
  ret ptr %16
}

; Function Attrs: mustprogress uwtable
define void @_ZN2cv8saliency14ObjectnessBING10gradientXYERNS_3MatES3_S3_(ptr noundef nonnull align 8 dereferenceable(96) %0, ptr noundef nonnull align 8 dereferenceable(96) %1, ptr noundef nonnull align 8 dereferenceable(96) %2) #4 align 2 {
  %4 = alloca ptr, align 8
  %5 = alloca ptr, align 8
  %6 = alloca ptr, align 8
  %7 = alloca i32, align 4
  %8 = alloca i32, align 4
  %9 = alloca i32, align 4
  %10 = alloca i32, align 4
  %11 = alloca ptr, align 8
  %12 = alloca ptr, align 8
  %13 = alloca ptr, align 8
  %14 = alloca i32, align 4
  %15 = alloca i32, align 4
  %16 = alloca i32, align 4
  store ptr %0, ptr %4, align 8, !tbaa !72
  store ptr %1, ptr %5, align 8, !tbaa !72
  store ptr %2, ptr %6, align 8, !tbaa !72
  call void @llvm.lifetime.start.p0(i64 4, ptr %7) #3
  %17 = load ptr, ptr %4, align 8, !tbaa !72
  %18 = getelementptr inbounds nuw %"class.cv::Mat", ptr %17, i32 0, i32 2
  %19 = load i32, ptr %18, align 8, !tbaa !90
  store i32 %19, ptr %7, align 4, !tbaa !40
  call void @llvm.lifetime.start.p0(i64 4, ptr %8) #3
  %20 = load ptr, ptr %4, align 8, !tbaa !72
  %21 = getelementptr inbounds nuw %"class.cv::Mat", ptr %20, i32 0, i32 3
  %22 = load i32, ptr %21, align 4, !tbaa !89
  store i32 %22, ptr %8, align 4, !tbaa !40
  %23 = load ptr, ptr %6, align 8, !tbaa !72
  %24 = load i32, ptr %7, align 4, !tbaa !40
  %25 = load i32, ptr %8, align 4, !tbaa !40
  call void @_ZN2cv3Mat6createEiii(ptr noundef nonnull align 8 dereferenceable(96) %23, i32 noundef %24, i32 noundef %25, i32 noundef 0)
  call void @llvm.lifetime.start.p0(i64 4, ptr %9) #3
  store i32 0, ptr %9, align 4, !tbaa !40
  br label %26

26:                                               ; preds = %69, %3
  %27 = load i32, ptr %9, align 4, !tbaa !40
  %28 = load i32, ptr %7, align 4, !tbaa !40
  %29 = icmp slt i32 %27, %28
  br i1 %29, label %31, label %30

30:                                               ; preds = %26
  store i32 2, ptr %10, align 4
  call void @llvm.lifetime.end.p0(i64 4, ptr %9) #3
  br label %72

31:                                               ; preds = %26
  call void @llvm.lifetime.start.p0(i64 8, ptr %11) #3
  %32 = load ptr, ptr %4, align 8, !tbaa !72
  %33 = load i32, ptr %9, align 4, !tbaa !40
  %34 = call noundef ptr @_ZN2cv3Mat3ptrIiEEPT_i(ptr noundef nonnull align 8 dereferenceable(96) %32, i32 noundef %33)
  store ptr %34, ptr %11, align 8, !tbaa !100
  call void @llvm.lifetime.start.p0(i64 8, ptr %12) #3
  %35 = load ptr, ptr %5, align 8, !tbaa !72
  %36 = load i32, ptr %9, align 4, !tbaa !40
  %37 = call noundef ptr @_ZN2cv3Mat3ptrIiEEPT_i(ptr noundef nonnull align 8 dereferenceable(96) %35, i32 noundef %36)
  store ptr %37, ptr %12, align 8, !tbaa !100
  call void @llvm.lifetime.start.p0(i64 8, ptr %13) #3
  %38 = load ptr, ptr %6, align 8, !tbaa !72
  %39 = load i32, ptr %9, align 4, !tbaa !40
  %40 = call noundef ptr @_ZN2cv3Mat3ptrIhEEPT_i(ptr noundef nonnull align 8 dereferenceable(96) %38, i32 noundef %39)
  store ptr %40, ptr %13, align 8, !tbaa !55
  call void @llvm.lifetime.start.p0(i64 4, ptr %14) #3
  store i32 0, ptr %14, align 4, !tbaa !40
  br label %41

41:                                               ; preds = %65, %31
  %42 = load i32, ptr %14, align 4, !tbaa !40
  %43 = load i32, ptr %8, align 4, !tbaa !40
  %44 = icmp slt i32 %42, %43
  br i1 %44, label %46, label %45

45:                                               ; preds = %41
  store i32 5, ptr %10, align 4
  call void @llvm.lifetime.end.p0(i64 4, ptr %14) #3
  br label %68

46:                                               ; preds = %41
  call void @llvm.lifetime.start.p0(i64 4, ptr %15) #3
  %47 = load ptr, ptr %11, align 8, !tbaa !100
  %48 = load i32, ptr %14, align 4, !tbaa !40
  %49 = sext i32 %48 to i64
  %50 = getelementptr inbounds i32, ptr %47, i64 %49
  %51 = load i32, ptr %50, align 4, !tbaa !40
  %52 = load ptr, ptr %12, align 8, !tbaa !100
  %53 = load i32, ptr %14, align 4, !tbaa !40
  %54 = sext i32 %53 to i64
  %55 = getelementptr inbounds i32, ptr %52, i64 %54
  %56 = load i32, ptr %55, align 4, !tbaa !40
  %57 = add nsw i32 %51, %56
  store i32 %57, ptr %15, align 4, !tbaa !40
  call void @llvm.lifetime.start.p0(i64 4, ptr %16) #3
  store i32 255, ptr %16, align 4, !tbaa !40
  %58 = call noundef nonnull align 4 dereferenceable(4) ptr @_ZSt3minIiERKT_S2_S2_(ptr noundef nonnull align 4 dereferenceable(4) %15, ptr noundef nonnull align 4 dereferenceable(4) %16)
  %59 = load i32, ptr %58, align 4, !tbaa !40
  %60 = trunc i32 %59 to i8
  %61 = load ptr, ptr %13, align 8, !tbaa !55
  %62 = load i32, ptr %14, align 4, !tbaa !40
  %63 = sext i32 %62 to i64
  %64 = getelementptr inbounds i8, ptr %61, i64 %63
  store i8 %60, ptr %64, align 1, !tbaa !69
  call void @llvm.lifetime.end.p0(i64 4, ptr %16) #3
  call void @llvm.lifetime.end.p0(i64 4, ptr %15) #3
  br label %65

65:                                               ; preds = %46
  %66 = load i32, ptr %14, align 4, !tbaa !40
  %67 = add nsw i32 %66, 1
  store i32 %67, ptr %14, align 4, !tbaa !40
  br label %41, !llvm.loop !168

68:                                               ; preds = %45
  call void @llvm.lifetime.end.p0(i64 8, ptr %13) #3
  call void @llvm.lifetime.end.p0(i64 8, ptr %12) #3
  call void @llvm.lifetime.end.p0(i64 8, ptr %11) #3
  br label %69

69:                                               ; preds = %68
  %70 = load i32, ptr %9, align 4, !tbaa !40
  %71 = add nsw i32 %70, 1
  store i32 %71, ptr %9, align 4, !tbaa !40
  br label %26, !llvm.loop !169

72:                                               ; preds = %30
  call void @llvm.lifetime.end.p0(i64 4, ptr %8) #3
  call void @llvm.lifetime.end.p0(i64 4, ptr %7) #3
  ret void
}