; Function Attrs: mustprogress uwtable
define void @_ZN2cv8saliency14ObjectnessBING10gradientXYERNS_3MatES3_S3_(ptr noundef nonnull readonly align 8 captures(none) dereferenceable(96) %0, ptr noundef nonnull readonly align 8 captures(none) dereferenceable(96) %1, ptr noundef nonnull align 8 dereferenceable(96) %2) local_unnamed_addr #3 align 2 {
  %4 = getelementptr inbounds nuw i8, ptr %0, i64 8
  %5 = load i32, ptr %4, align 8, !tbaa !101
  %6 = getelementptr inbounds nuw i8, ptr %0, i64 12
  %7 = load i32, ptr %6, align 4, !tbaa !100
  tail call void @_ZN2cv3Mat6createEiii(ptr noundef nonnull align 8 dereferenceable(96) %2, i32 noundef %5, i32 noundef %7, i32 noundef 0)
  %8 = icmp sgt i32 %5, 0
  br i1 %8, label %.lr.ph29, label %._crit_edge30

.lr.ph29:                                         ; preds = %3
  %9 = getelementptr inbounds nuw i8, ptr %0, i64 16
  %10 = getelementptr inbounds nuw i8, ptr %0, i64 72
  %11 = getelementptr inbounds nuw i8, ptr %1, i64 16
  %12 = getelementptr inbounds nuw i8, ptr %1, i64 72
  %13 = getelementptr inbounds nuw i8, ptr %2, i64 16
  %14 = getelementptr inbounds nuw i8, ptr %2, i64 72
  %15 = icmp sgt i32 %7, 0
  br i1 %15, label %.lr.ph.us.preheader, label %._crit_edge30

.lr.ph.us.preheader:                              ; preds = %.lr.ph29
  %wide.trip.count36 = zext nneg i32 %5 to i64
  %wide.trip.count = zext nneg i32 %7 to i64
  br label %.lr.ph.us

.lr.ph.us:                                        ; preds = %.lr.ph.us.preheader, %._crit_edge.us
  %indvars.iv33 = phi i64 [ 0, %.lr.ph.us.preheader ], [ %indvars.iv.next34, %._crit_edge.us ]
  %16 = load ptr, ptr %9, align 8, !tbaa !156
  %17 = load ptr, ptr %10, align 8, !tbaa !157
  %18 = load i64, ptr %17, align 8, !tbaa !50
  %19 = mul i64 %18, %indvars.iv33
  %20 = getelementptr inbounds nuw i8, ptr %16, i64 %19
  %21 = load ptr, ptr %11, align 8, !tbaa !156
  %22 = load ptr, ptr %12, align 8, !tbaa !157
  %23 = load i64, ptr %22, align 8, !tbaa !50
  %24 = mul i64 %23, %indvars.iv33
  %25 = getelementptr inbounds nuw i8, ptr %21, i64 %24
  %26 = load ptr, ptr %13, align 8, !tbaa !156
  %27 = load ptr, ptr %14, align 8, !tbaa !157
  %28 = load i64, ptr %27, align 8, !tbaa !50
  %29 = mul i64 %28, %indvars.iv33
  %30 = getelementptr inbounds nuw i8, ptr %26, i64 %29
  br label %31

31:                                               ; preds = %.lr.ph.us, %31
  %indvars.iv = phi i64 [ 0, %.lr.ph.us ], [ %indvars.iv.next, %31 ]
  %32 = getelementptr inbounds nuw i32, ptr %20, i64 %indvars.iv
  %33 = load i32, ptr %32, align 4, !tbaa !83
  %34 = getelementptr inbounds nuw i32, ptr %25, i64 %indvars.iv
  %35 = load i32, ptr %34, align 4, !tbaa !83
  %36 = add nsw i32 %35, %33
  %.sroa.speculated.us = tail call i32 @llvm.smin.i32(i32 %36, i32 255)
  %37 = trunc i32 %.sroa.speculated.us to i8
  %38 = getelementptr inbounds nuw i8, ptr %30, i64 %indvars.iv
  store i8 %37, ptr %38, align 1, !tbaa !14
  %indvars.iv.next = add nuw nsw i64 %indvars.iv, 1
  %exitcond.not = icmp eq i64 %indvars.iv.next, %wide.trip.count
  br i1 %exitcond.not, label %._crit_edge.us, label %31, !llvm.loop !214

._crit_edge.us:                                   ; preds = %31
  %indvars.iv.next34 = add nuw nsw i64 %indvars.iv33, 1
  %exitcond37.not = icmp eq i64 %indvars.iv.next34, %wide.trip.count36
  br i1 %exitcond37.not, label %._crit_edge30, label %.lr.ph.us, !llvm.loop !215

._crit_edge30:                                    ; preds = %._crit_edge.us, %.lr.ph29, %3
  ret void
}